; Function Attrs: nounwind uwtable
define noalias noundef ptr @Unm_ManTest(ptr noundef %0) local_unnamed_addr #0 {
  %2 = alloca %struct.timespec, align 8
  %3 = tail call ptr @Unm_ManAlloc(ptr noundef %0)
  tail call void @Unm_ManWork(ptr noundef %3)
  call void @llvm.lifetime.start.p0(i64 16, ptr nonnull %2) #19
  %4 = call i32 @clock_gettime(i32 noundef 1, ptr noundef nonnull %2) #19
  %5 = icmp slt i32 %4, 0
  br i1 %5, label %Abc_Clock.exit, label %6

6:                                                ; preds = %1
  %7 = load i64, ptr %2, align 8, !tbaa !3
  %8 = mul nsw i64 %7, 1000000
  %9 = getelementptr inbounds nuw i8, ptr %2, i64 8
  %10 = load i64, ptr %9, align 8, !tbaa !8
  %11 = sdiv i64 %10, 1000
  %12 = add nsw i64 %11, %8
  br label %Abc_Clock.exit

Abc_Clock.exit:                                   ; preds = %1, %6
  %.0.i = phi i64 [ %12, %6 ], [ -1, %1 ]
  call void @llvm.lifetime.end.p0(i64 16, ptr nonnull %2) #19
  %13 = getelementptr inbounds nuw i8, ptr %3, i64 64
  %14 = load i64, ptr %13, align 8, !tbaa !9
  %15 = sub nsw i64 %.0.i, %14
  call void (i32, ptr, ...) @Abc_Print(i32 poison, ptr noundef nonnull @.str.5, ptr noundef nonnull @.str.4)
  %16 = sitofp i64 %15 to double
  %17 = fdiv double %16, 1.000000e+06
  call void (i32, ptr, ...) @Abc_Print(i32 poison, ptr noundef nonnull @.str.6, double noundef %17)
  %18 = call ptr @Unm_ManFree(ptr noundef %3)
  ret ptr null
}